; Function Attrs: mustprogress uwtable
define hidden void @_ZN2qe16i_solver_context10mk_atom_fnclEP4exprbR7obj_refIS2_11ast_managerE(ptr nocapture noundef nonnull readonly align 8 dereferenceable(16) %this, ptr noundef %e, i1 noundef zeroext %p, ptr noundef nonnull align 8 dereferenceable(16) %result) unnamed_addr #3 align 2 {
entry:
  %m_s = getelementptr inbounds i8, ptr %this, i64 8
  %0 = load ptr, ptr %m_s, align 8
  %vtable.i = load ptr, ptr %0, align 8
  %vfn.i = getelementptr inbounds i8, ptr %vtable.i, i64 16
  %1 = load ptr, ptr %vfn.i, align 8
  %call.i = tail call noundef nonnull align 8 dereferenceable(976) ptr %1(ptr noundef nonnull align 8 dereferenceable(48) %0)
  %m_plugins.i = getelementptr inbounds i8, ptr %0, i64 40
  br label %for.cond.i

for.cond.i:                                       ; preds = %for.inc.i, %entry
  %indvars.iv.i = phi i64 [ %indvars.iv.next.i, %for.inc.i ], [ 0, %entry ]
  %2 = load ptr, ptr %m_plugins.i, align 8
  %cmp.i.i = icmp eq ptr %2, null
  br i1 %cmp.i.i, label %_ZNK6vectorIPN2qe16qe_solver_pluginELb0EjE4sizeEv.exit.i, label %if.end.i.i

if.end.i.i:                                       ; preds = %for.cond.i
  %arrayidx.i.i = getelementptr inbounds i8, ptr %2, i64 -4
  %3 = load i32, ptr %arrayidx.i.i, align 4
  br label %_ZNK6vectorIPN2qe16qe_solver_pluginELb0EjE4sizeEv.exit.i

_ZNK6vectorIPN2qe16qe_solver_pluginELb0EjE4sizeEv.exit.i: ; preds = %if.end.i.i, %for.cond.i
  %retval.0.i.i = phi i32 [ %3, %if.end.i.i ], [ 0, %for.cond.i ]
  %4 = zext i32 %retval.0.i.i to i64
  %cmp.i = icmp ult i64 %indvars.iv.i, %4
  br i1 %cmp.i, label %for.body.i, label %for.end.i

for.body.i:                                       ; preds = %_ZNK6vectorIPN2qe16qe_solver_pluginELb0EjE4sizeEv.exit.i
  %arrayidx.i8.i = getelementptr inbounds ptr, ptr %2, i64 %indvars.iv.i
  %5 = load ptr, ptr %arrayidx.i8.i, align 8
  %tobool.not.i = icmp eq ptr %5, null
  br i1 %tobool.not.i, label %for.inc.i, label %land.lhs.true.i

land.lhs.true.i:                                  ; preds = %for.body.i
  %vtable6.i = load ptr, ptr %5, align 8
  %vfn7.i = getelementptr inbounds i8, ptr %vtable6.i, i64 72
  %6 = load ptr, ptr %vfn7.i, align 8
  %call8.i = tail call noundef zeroext i1 %6(ptr noundef nonnull align 8 dereferenceable(32) %5, ptr noundef %e, i1 noundef zeroext %p, ptr noundef nonnull align 8 dereferenceable(16) %result)
  br i1 %call8.i, label %_ZN2qe16i_solver_context7mk_atomEP4exprbR7obj_refIS1_11ast_managerE.exit, label %for.inc.i

for.inc.i:                                        ; preds = %land.lhs.true.i, %for.body.i
  %indvars.iv.next.i = add nuw nsw i64 %indvars.iv.i, 1
  br label %for.cond.i, !llvm.loop !27

for.end.i:                                        ; preds = %_ZNK6vectorIPN2qe16qe_solver_pluginELb0EjE4sizeEv.exit.i
  br i1 %p, label %cond.end.i, label %cond.false.i

cond.false.i:                                     ; preds = %for.end.i
  %call10.i = tail call noundef ptr @_Z6mk_notR11ast_managerP4expr(ptr noundef nonnull align 8 dereferenceable(976) %call.i, ptr noundef %e)
  br label %cond.end.i

cond.end.i:                                       ; preds = %cond.false.i, %for.end.i
  %cond.i = phi ptr [ %call10.i, %cond.false.i ], [ %e, %for.end.i ]
  %tobool.not.i.i = icmp eq ptr %cond.i, null
  br i1 %tobool.not.i.i, label %if.end.i9.i, label %_ZN11ast_manager7inc_refEP3ast.exit.i.i

_ZN11ast_manager7inc_refEP3ast.exit.i.i:          ; preds = %cond.end.i
  %m_ref_count.i.i.i.i = getelementptr inbounds i8, ptr %cond.i, i64 8
  %7 = load i32, ptr %m_ref_count.i.i.i.i, align 4
  %inc.i.i.i.i = add i32 %7, 1
  store i32 %inc.i.i.i.i, ptr %m_ref_count.i.i.i.i, align 4
  br label %if.end.i9.i

if.end.i9.i:                                      ; preds = %_ZN11ast_manager7inc_refEP3ast.exit.i.i, %cond.end.i
  %8 = load ptr, ptr %result, align 8
  %tobool.not.i3.i.i = icmp eq ptr %8, null
  br i1 %tobool.not.i3.i.i, label %_ZN7obj_refI4expr11ast_managerEaSEPS0_.exit.i, label %if.then.i.i.i.i

if.then.i.i.i.i:                                  ; preds = %if.end.i9.i
  %m_manager.i.i.i = getelementptr inbounds i8, ptr %result, i64 8
  %9 = load ptr, ptr %m_manager.i.i.i, align 8
  %m_ref_count.i.i.i.i.i = getelementptr inbounds i8, ptr %8, i64 8
  %10 = load i32, ptr %m_ref_count.i.i.i.i.i, align 4
  %dec.i.i.i.i.i = add i32 %10, -1
  store i32 %dec.i.i.i.i.i, ptr %m_ref_count.i.i.i.i.i, align 4
  %cmp.i.i.i.i = icmp eq i32 %dec.i.i.i.i.i, 0
  br i1 %cmp.i.i.i.i, label %if.then2.i.i.i.i, label %_ZN7obj_refI4expr11ast_managerEaSEPS0_.exit.i

if.then2.i.i.i.i:                                 ; preds = %if.then.i.i.i.i
  tail call void @_ZN11ast_manager11delete_nodeEP3ast(ptr noundef nonnull align 8 dereferenceable(976) %9, ptr noundef nonnull %8)
  br label %_ZN7obj_refI4expr11ast_managerEaSEPS0_.exit.i

_ZN7obj_refI4expr11ast_managerEaSEPS0_.exit.i:    ; preds = %if.then2.i.i.i.i, %if.then.i.i.i.i, %if.end.i9.i
  store ptr %cond.i, ptr %result, align 8
  br label %_ZN2qe16i_solver_context7mk_atomEP4exprbR7obj_refIS1_11ast_managerE.exit

_ZN2qe16i_solver_context7mk_atomEP4exprbR7obj_refIS1_11ast_managerE.exit: ; preds = %land.lhs.true.i, %_ZN7obj_refI4expr11ast_managerEaSEPS0_.exit.i
  ret void
}